; Function Attrs: mustprogress uwtable
define dso_local void @_ZN16btDbvtBroadphase8aabbTestERK9btVector3S2_R24btBroadphaseAabbCallback(ptr noundef nonnull align 8 dereferenceable(256) %this, ptr nocapture noundef nonnull readonly align 4 dereferenceable(16) %aabbMin, ptr nocapture noundef nonnull readonly align 4 dereferenceable(16) %aabbMax, ptr noundef nonnull align 8 dereferenceable(8) %aabbCallback) unnamed_addr #0 align 2 personality ptr @__gxx_personality_v0 {
invoke.cont:
  %callback = alloca %struct.BroadphaseAabbTester, align 8
  %bounds = alloca %struct.btDbvtAabbMm, align 4
  store ptr getelementptr inbounds ({ [10 x ptr] }, ptr @_ZTV20BroadphaseAabbTester, i64 0, i32 0, i64 2), ptr %callback, align 8
  %m_aabbCallback.i = getelementptr inbounds i8, ptr %callback, i64 8
  store ptr %aabbCallback, ptr %m_aabbCallback.i, align 8
  call void @llvm.memcpy.p0.p0.i64(ptr noundef nonnull align 4 dereferenceable(16) %bounds, ptr noundef nonnull align 4 dereferenceable(16) %aabbMin, i64 16, i1 false)
  %mx2.i = getelementptr inbounds i8, ptr %bounds, i64 16
  call void @llvm.memcpy.p0.p0.i64(ptr noundef nonnull align 4 dereferenceable(16) %mx2.i, ptr noundef nonnull align 4 dereferenceable(16) %aabbMax, i64 16, i1 false)
  %m_sets = getelementptr inbounds i8, ptr %this, i64 8
  %0 = load ptr, ptr %m_sets, align 8
  call void @_ZNK6btDbvt9collideTVEPK10btDbvtNodeRK12btDbvtAabbMmRNS_8ICollideE(ptr noundef nonnull align 8 dereferenceable(64) %m_sets, ptr noundef %0, ptr noundef nonnull align 4 dereferenceable(32) %bounds, ptr noundef nonnull align 8 dereferenceable(8) %callback)
  %arrayidx6 = getelementptr inbounds i8, ptr %this, i64 72
  %1 = load ptr, ptr %arrayidx6, align 8
  call void @_ZNK6btDbvt9collideTVEPK10btDbvtNodeRK12btDbvtAabbMmRNS_8ICollideE(ptr noundef nonnull align 8 dereferenceable(64) %arrayidx6, ptr noundef %1, ptr noundef nonnull align 4 dereferenceable(32) %bounds, ptr noundef nonnull align 8 dereferenceable(8) %callback)
  ret void
}